(lp0
(S'cppflags'
p1
ccopy_reg
_reconstructor
p2
(cino.utils
SpaceList
p3
c__builtin__
list
p4
(lp5
S'-mmcu=atmega328p'
p6
aS'-DF_CPU=16000000L'
p7
aS'-DARDUINO=105'
p8
aS'-I/usr/share/arduino/hardware/arduino/cores/arduino'
p9
aS'-ffunction-sections'
p10
aS'-fdata-sections'
p11
aS'-g'
p12
aS'-Os'
p13
aS'-w'
p14
aS'-I/usr/share/arduino/hardware/arduino/variants/standard'
p15
aS'-I/usr/share/arduino/libraries/Servo'
p16
aS'-I/usr/share/arduino/libraries/Ethernet'
p17
aS'-I/usr/share/arduino/libraries/Ethernet/utility'
p18
aS'-I/usr/share/arduino/libraries/Robot_Control'
p19
aS'-I/usr/share/arduino/libraries/Robot_Control/utility'
p20
aS'-I/usr/share/arduino/hardware/arduino/cores/arduino'
p21
aS'-I/usr/share/arduino/hardware/arduino/cores/arduino/avr-libc'
p22
atp23
Rp24
tp25
a(S'version.txt'
p26
S'/usr/share/arduino/lib/version.txt'
p27
tp28
a(S'used_libs'
p29
(lp30
S'/usr/share/arduino/libraries/Servo'
p31
aS'/usr/share/arduino/libraries/Ethernet'
p32
aS'/usr/share/arduino/libraries/Robot_Control'
p33
aS'/usr/share/arduino/hardware/arduino/cores/arduino'
p34
atp35
a(S'cxx'
p36
S'/usr/share/arduino/hardware/tools/avr/bin/avr-g++'
p37
tp38
a(S'make'
p39
S'/usr/share/arduino/hardware/tools/avr/bin/make'
p40
tp41
a(S'cflags'
p42
g2
(g3
g4
(lp43
tp44
Rp45
tp46
a(S'build_dir'
p47
S'.build/uno'
p48
tp49
a(S'arduino_core_dir'
p50
g34
tp51
a(S'boards.txt'
p52
S'/usr/share/arduino/hardware/arduino/boards.txt'
p53
tp54
a(S'cxxflags'
p55
g2
(g3
g4
(lp56
S'-fno-exceptions'
p57
atp58
Rp59
tp60
a(S'arduino_variants_dir'
p61
S'/usr/share/arduino/hardware/arduino/variants'
p62
tp63
a(S'ar'
p64
S'/usr/share/arduino/hardware/tools/avr/bin/avr-ar'
p65
tp66
a(S'names'
p67
(dp68
S'cpp'
p69
S'%s.cpp'
p70
sS'obj'
p71
S'%s.o'
p72
sS'deps'
p73
S'%s.d'
p74
sS'lib'
p75
S'lib%s.a'
p76
stp77
a(S'deps'
p78
g2
(g3
g4
(lp79
S'.build/uno/src/dependencies.d'
p80
aS'.build/uno/arduino/dependencies.d'
p81
aS'.build/uno/Servo/dependencies.d'
p82
aS'.build/uno/Robot_Control/dependencies.d'
p83
aS'.build/uno/Ethernet/dependencies.d'
p84
atp85
Rp86
tp87
a(S'ldflags'
p88
g2
(g3
g4
(lp89
g6
aS'-Wl,-Os'
p90
aS'-Wl,--gc-sections'
p91
atp92
Rp93
tp94
a(S'arduino_libraries_dir'
p95
S'/usr/share/arduino/libraries'
p96
tp97
a(S'arduino_lib_version'
p98
g2
(cino.environment
Version
p99
c__builtin__
tuple
p100
(I1
I0
I5
tp101
tp102
Rp103
tp104
a(S'objcopy'
p105
S'/usr/share/arduino/hardware/tools/avr/bin/avr-objcopy'
p106
tp107
a(S'board_models'
p108
cino.environment
BoardModels
p109
((lp110
(lp111
S'uno'
p112
a(dp113
S'bootloader'
p114
(dp115
S'extended_fuses'
p116
S'0x05'
p117
sS'high_fuses'
p118
S'0xde'
p119
sS'low_fuses'
p120
S'0xff'
p121
sS'lock_bits'
p122
S'0x0F'
p123
sS'file'
p124
S'optiboot_atmega328.hex'
p125
sS'path'
p126
S'optiboot'
p127
sS'unlock_bits'
p128
S'0x3F'
p129
ssS'upload'
p130
(dp131
S'protocol'
p132
S'arduino'
p133
sS'maximum_size'
p134
S'32256'
p135
sS'speed'
p136
S'115200'
p137
ssS'build'
p138
(dp139
S'core'
p140
S'arduino'
p141
sS'mcu'
p142
S'atmega328p'
p143
sS'f_cpu'
p144
S'16000000L'
p145
sS'variant'
p146
S'standard'
p147
ssS'name'
p148
S'Arduino Uno'
p149
saa(lp150
S'atmega328'
p151
a(dp152
S'bootloader'
p153
(dp154
S'extended_fuses'
p155
S'0x05'
p156
sS'high_fuses'
p157
S'0xDA'
p158
sS'low_fuses'
p159
S'0xFF'
p160
sS'lock_bits'
p161
S'0x0F'
p162
sS'file'
p163
S'ATmegaBOOT_168_atmega328.hex'
p164
sS'path'
p165
S'atmega'
p166
sS'unlock_bits'
p167
S'0x3F'
p168
ssS'upload'
p169
(dp170
S'protocol'
p171
S'arduino'
p172
sS'maximum_size'
p173
S'30720'
p174
sS'speed'
p175
S'57600'
p176
ssS'build'
p177
(dp178
S'core'
p179
S'arduino'
p180
sS'mcu'
p181
S'atmega328p'
p182
sS'f_cpu'
p183
S'16000000L'
p184
sS'variant'
p185
S'standard'
p186
ssS'name'
p187
S'Arduino Duemilanove w/ ATmega328'
p188
saa(lp189
S'diecimila'
p190
a(dp191
S'bootloader'
p192
(dp193
S'extended_fuses'
p194
S'0x00'
p195
sS'high_fuses'
p196
S'0xdd'
p197
sS'low_fuses'
p198
S'0xff'
p199
sS'lock_bits'
p200
S'0x0F'
p201
sS'file'
p202
S'ATmegaBOOT_168_diecimila.hex'
p203
sS'path'
p204
S'atmega'
p205
sS'unlock_bits'
p206
S'0x3F'
p207
ssS'upload'
p208
(dp209
S'protocol'
p210
S'arduino'
p211
sS'maximum_size'
p212
S'14336'
p213
sS'speed'
p214
S'19200'
p215
ssS'build'
p216
(dp217
S'core'
p218
S'arduino'
p219
sS'mcu'
p220
S'atmega168'
p221
sS'f_cpu'
p222
S'16000000L'
p223
sS'variant'
p224
S'standard'
p225
ssS'name'
p226
S'Arduino Diecimila or Duemilanove w/ ATmega168'
p227
saa(lp228
S'nano328'
p229
a(dp230
S'bootloader'
p231
(dp232
S'extended_fuses'
p233
S'0x05'
p234
sS'high_fuses'
p235
S'0xDA'
p236
sS'low_fuses'
p237
S'0xFF'
p238
sS'lock_bits'
p239
S'0x0F'
p240
sS'file'
p241
S'ATmegaBOOT_168_atmega328.hex'
p242
sS'path'
p243
S'atmega'
p244
sS'unlock_bits'
p245
S'0x3F'
p246
ssS'upload'
p247
(dp248
S'protocol'
p249
S'arduino'
p250
sS'maximum_size'
p251
S'30720'
p252
sS'speed'
p253
S'57600'
p254
ssS'build'
p255
(dp256
S'core'
p257
S'arduino'
p258
sS'mcu'
p259
S'atmega328p'
p260
sS'f_cpu'
p261
S'16000000L'
p262
sS'variant'
p263
S'eightanaloginputs'
p264
ssS'name'
p265
S'Arduino Nano w/ ATmega328'
p266
saa(lp267
S'nano'
p268
a(dp269
S'bootloader'
p270
(dp271
S'extended_fuses'
p272
S'0x00'
p273
sS'high_fuses'
p274
S'0xdd'
p275
sS'low_fuses'
p276
S'0xff'
p277
sS'lock_bits'
p278
S'0x0F'
p279
sS'file'
p280
S'ATmegaBOOT_168_diecimila.hex'
p281
sS'path'
p282
S'atmega'
p283
sS'unlock_bits'
p284
S'0x3F'
p285
ssS'upload'
p286
(dp287
S'protocol'
p288
S'arduino'
p289
sS'maximum_size'
p290
S'14336'
p291
sS'speed'
p292
S'19200'
p293
ssS'build'
p294
(dp295
S'core'
p296
S'arduino'
p297
sS'mcu'
p298
S'atmega168'
p299
sS'f_cpu'
p300
S'16000000L'
p301
sS'variant'
p302
S'eightanaloginputs'
p303
ssS'name'
p304
S'Arduino Nano w/ ATmega168'
p305
saa(lp306
S'mega2560'
p307
a(dp308
S'bootloader'
p309
(dp310
S'extended_fuses'
p311
S'0xFD'
p312
sS'high_fuses'
p313
S'0xD8'
p314
sS'low_fuses'
p315
S'0xFF'
p316
sS'lock_bits'
p317
S'0x0F'
p318
sS'file'
p319
S'stk500boot_v2_mega2560.hex'
p320
sS'path'
p321
S'stk500v2'
p322
sS'unlock_bits'
p323
S'0x3F'
p324
ssS'upload'
p325
(dp326
S'protocol'
p327
S'wiring'
p328
sS'maximum_size'
p329
S'258048'
p330
sS'speed'
p331
S'115200'
p332
ssS'build'
p333
(dp334
S'core'
p335
S'arduino'
p336
sS'mcu'
p337
S'atmega2560'
p338
sS'f_cpu'
p339
S'16000000L'
p340
sS'variant'
p341
S'mega'
p342
ssS'name'
p343
S'Arduino Mega 2560 or Mega ADK'
p344
saa(lp345
S'mega'
p346
a(dp347
S'bootloader'
p348
(dp349
S'extended_fuses'
p350
S'0xF5'
p351
sS'high_fuses'
p352
S'0xDA'
p353
sS'low_fuses'
p354
S'0xFF'
p355
sS'lock_bits'
p356
S'0x0F'
p357
sS'file'
p358
S'ATmegaBOOT_168_atmega1280.hex'
p359
sS'path'
p360
S'atmega'
p361
sS'unlock_bits'
p362
S'0x3F'
p363
ssS'upload'
p364
(dp365
S'protocol'
p366
S'arduino'
p367
sS'maximum_size'
p368
S'126976'
p369
sS'speed'
p370
S'57600'
p371
ssS'build'
p372
(dp373
S'core'
p374
S'arduino'
p375
sS'mcu'
p376
S'atmega1280'
p377
sS'f_cpu'
p378
S'16000000L'
p379
sS'variant'
p380
S'mega'
p381
ssS'name'
p382
S'Arduino Mega (ATmega1280)'
p383
saa(lp384
S'leonardo'
p385
a(dp386
S'bootloader'
p387
(dp388
S'extended_fuses'
p389
S'0xcb'
p390
sS'high_fuses'
p391
S'0xd8'
p392
sS'low_fuses'
p393
S'0xff'
p394
sS'lock_bits'
p395
S'0x2F'
p396
sS'file'
p397
S'Caterina-Leonardo.hex'
p398
sS'path'
p399
S'caterina'
p400
sS'unlock_bits'
p401
S'0x3F'
p402
ssS'upload'
p403
(dp404
S'protocol'
p405
S'avr109'
p406
sS'maximum_size'
p407
S'28672'
p408
sS'speed'
p409
S'57600'
p410
sS'disable_flushing'
p411
S'true'
p412
ssS'build'
p413
(dp414
S'core'
p415
S'arduino'
p416
sS'f_cpu'
p417
S'16000000L'
p418
sS'vid'
p419
S'0x2341'
p420
sS'pid'
p421
S'0x8036'
p422
sS'variant'
p423
S'leonardo'
p424
sS'mcu'
p425
S'atmega32u4'
p426
ssS'name'
p427
S'Arduino Leonardo'
p428
saa(lp429
S'esplora'
p430
a(dp431
S'bootloader'
p432
(dp433
S'extended_fuses'
p434
S'0xcb'
p435
sS'high_fuses'
p436
S'0xd8'
p437
sS'low_fuses'
p438
S'0xff'
p439
sS'lock_bits'
p440
S'0x2F'
p441
sS'file'
p442
S'Caterina-Esplora.hex'
p443
sS'path'
p444
S'caterina'
p445
sS'unlock_bits'
p446
S'0x3F'
p447
ssS'upload'
p448
(dp449
S'protocol'
p450
S'avr109'
p451
sS'maximum_size'
p452
S'28672'
p453
sS'speed'
p454
S'57600'
p455
sS'disable_flushing'
p456
S'true'
p457
ssS'build'
p458
(dp459
S'core'
p460
S'arduino'
p461
sS'f_cpu'
p462
S'16000000L'
p463
sS'vid'
p464
S'0x2341'
p465
sS'pid'
p466
S'0x803C'
p467
sS'variant'
p468
S'leonardo'
p469
sS'mcu'
p470
S'atmega32u4'
p471
ssS'name'
p472
S'Arduino Esplora'
p473
saa(lp474
S'micro'
p475
a(dp476
S'bootloader'
p477
(dp478
S'extended_fuses'
p479
S'0xcb'
p480
sS'high_fuses'
p481
S'0xd8'
p482
sS'low_fuses'
p483
S'0xff'
p484
sS'lock_bits'
p485
S'0x2F'
p486
sS'file'
p487
S'Caterina-Micro.hex'
p488
sS'path'
p489
S'caterina'
p490
sS'unlock_bits'
p491
S'0x3F'
p492
ssS'upload'
p493
(dp494
S'protocol'
p495
S'avr109'
p496
sS'maximum_size'
p497
S'28672'
p498
sS'speed'
p499
S'57600'
p500
sS'disable_flushing'
p501
S'true'
p502
ssS'build'
p503
(dp504
S'core'
p505
S'arduino'
p506
sS'f_cpu'
p507
S'16000000L'
p508
sS'vid'
p509
S'0x2341'
p510
sS'pid'
p511
S'0x8037'
p512
sS'variant'
p513
S'micro'
p514
sS'mcu'
p515
S'atmega32u4'
p516
ssS'name'
p517
S'Arduino Micro'
p518
saa(lp519
S'mini328'
p520
a(dp521
S'bootloader'
p522
(dp523
S'extended_fuses'
p524
S'0x05'
p525
sS'high_fuses'
p526
S'0xd8'
p527
sS'low_fuses'
p528
S'0xff'
p529
sS'lock_bits'
p530
S'0x0F'
p531
sS'file'
p532
S'optiboot_atmega328-Mini.hex'
p533
sS'path'
p534
S'optiboot'
p535
sS'unlock_bits'
p536
S'0x3F'
p537
ssS'upload'
p538
(dp539
S'protocol'
p540
S'arduino'
p541
sS'maximum_size'
p542
S'28672'
p543
sS'speed'
p544
S'115200'
p545
ssS'build'
p546
(dp547
S'core'
p548
S'arduino'
p549
sS'mcu'
p550
S'atmega328p'
p551
sS'f_cpu'
p552
S'16000000L'
p553
sS'variant'
p554
S'eightanaloginputs'
p555
ssS'name'
p556
S'Arduino Mini w/ ATmega328'
p557
saa(lp558
S'mini'
p559
a(dp560
S'bootloader'
p561
(dp562
S'extended_fuses'
p563
S'0x00'
p564
sS'high_fuses'
p565
S'0xdd'
p566
sS'low_fuses'
p567
S'0xff'
p568
sS'lock_bits'
p569
S'0x0F'
p570
sS'file'
p571
S'ATmegaBOOT_168_ng.hex'
p572
sS'path'
p573
S'atmega'
p574
sS'unlock_bits'
p575
S'0x3F'
p576
ssS'upload'
p577
(dp578
S'protocol'
p579
S'arduino'
p580
sS'maximum_size'
p581
S'14336'
p582
sS'speed'
p583
S'19200'
p584
ssS'build'
p585
(dp586
S'core'
p587
S'arduino'
p588
sS'mcu'
p589
S'atmega168'
p590
sS'f_cpu'
p591
S'16000000L'
p592
sS'variant'
p593
S'eightanaloginputs'
p594
ssS'name'
p595
S'Arduino Mini w/ ATmega168'
p596
saa(lp597
S'ethernet'
p598
a(dp599
S'bootloader'
p600
(dp601
S'extended_fuses'
p602
S'0x05'
p603
sS'high_fuses'
p604
S'0xde'
p605
sS'low_fuses'
p606
S'0xff'
p607
sS'lock_bits'
p608
S'0x0F'
p609
sS'file'
p610
S'optiboot_atmega328.hex'
p611
sS'path'
p612
S'optiboot'
p613
sS'unlock_bits'
p614
S'0x3F'
p615
ssS'upload'
p616
(dp617
S'protocol'
p618
S'arduino'
p619
sS'maximum_size'
p620
S'32256'
p621
sS'speed'
p622
S'115200'
p623
ssS'build'
p624
(dp625
S'variant'
p626
S'standard'
p627
sS'mcu'
p628
S'atmega328p'
p629
sS'f_cpu'
p630
S'16000000L'
p631
sS'core'
p632
S'arduino'
p633
ssS'name'
p634
S'Arduino Ethernet'
p635
saa(lp636
S'fio'
p637
a(dp638
S'bootloader'
p639
(dp640
S'extended_fuses'
p641
S'0x05'
p642
sS'high_fuses'
p643
S'0xDA'
p644
sS'low_fuses'
p645
S'0xFF'
p646
sS'lock_bits'
p647
S'0x0F'
p648
sS'file'
p649
S'ATmegaBOOT_168_atmega328_pro_8MHz.hex'
p650
sS'path'
p651
S'arduino:atmega'
p652
sS'unlock_bits'
p653
S'0x3F'
p654
ssS'upload'
p655
(dp656
S'protocol'
p657
S'arduino'
p658
sS'maximum_size'
p659
S'30720'
p660
sS'speed'
p661
S'57600'
p662
ssS'build'
p663
(dp664
S'core'
p665
S'arduino'
p666
sS'mcu'
p667
S'atmega328p'
p668
sS'f_cpu'
p669
S'8000000L'
p670
sS'variant'
p671
S'eightanaloginputs'
p672
ssS'name'
p673
S'Arduino Fio'
p674
saa(lp675
S'bt328'
p676
a(dp677
S'bootloader'
p678
(dp679
S'extended_fuses'
p680
S'0x05'
p681
sS'high_fuses'
p682
S'0xd8'
p683
sS'low_fuses'
p684
S'0xff'
p685
sS'lock_bits'
p686
S'0x0F'
p687
sS'file'
p688
S'ATmegaBOOT_168_atmega328_bt.hex'
p689
sS'path'
p690
S'bt'
p691
sS'unlock_bits'
p692
S'0x3F'
p693
ssS'upload'
p694
(dp695
S'protocol'
p696
S'arduino'
p697
sS'maximum_size'
p698
S'28672'
p699
sS'speed'
p700
S'19200'
p701
sS'disable_flushing'
p702
S'true'
p703
ssS'build'
p704
(dp705
S'core'
p706
S'arduino'
p707
sS'mcu'
p708
S'atmega328p'
p709
sS'f_cpu'
p710
S'16000000L'
p711
sS'variant'
p712
S'eightanaloginputs'
p713
ssS'name'
p714
S'Arduino BT w/ ATmega328'
p715
saa(lp716
S'bt'
p717
a(dp718
S'bootloader'
p719
(dp720
S'extended_fuses'
p721
S'0x00'
p722
sS'high_fuses'
p723
S'0xdd'
p724
sS'low_fuses'
p725
S'0xff'
p726
sS'lock_bits'
p727
S'0x0F'
p728
sS'file'
p729
S'ATmegaBOOT_168.hex'
p730
sS'path'
p731
S'bt'
p732
sS'unlock_bits'
p733
S'0x3F'
p734
ssS'upload'
p735
(dp736
S'protocol'
p737
S'arduino'
p738
sS'maximum_size'
p739
S'14336'
p740
sS'speed'
p741
S'19200'
p742
sS'disable_flushing'
p743
S'true'
p744
ssS'build'
p745
(dp746
S'core'
p747
S'arduino'
p748
sS'mcu'
p749
S'atmega168'
p750
sS'f_cpu'
p751
S'16000000L'
p752
sS'variant'
p753
S'eightanaloginputs'
p754
ssS'name'
p755
S'Arduino BT w/ ATmega168'
p756
saa(lp757
S'LilyPadUSB'
p758
a(dp759
S'bootloader'
p760
(dp761
S'extended_fuses'
p762
S'0xce'
p763
sS'high_fuses'
p764
S'0xd8'
p765
sS'low_fuses'
p766
S'0xff'
p767
sS'lock_bits'
p768
S'0x2F'
p769
sS'file'
p770
S'Caterina-LilyPadUSB.hex'
p771
sS'path'
p772
S'caterina-LilyPadUSB'
p773
sS'unlock_bits'
p774
S'0x3F'
p775
ssS'upload'
p776
(dp777
S'protocol'
p778
S'avr109'
p779
sS'maximum_size'
p780
S'28672'
p781
sS'speed'
p782
S'57600'
p783
sS'disable_flushing'
p784
S'true'
p785
ssS'build'
p786
(dp787
S'core'
p788
S'arduino'
p789
sS'f_cpu'
p790
S'8000000L'
p791
sS'vid'
p792
S'0x1B4F'
p793
sS'pid'
p794
S'0x9208'
p795
sS'variant'
p796
S'leonardo'
p797
sS'mcu'
p798
S'atmega32u4'
p799
ssS'name'
p800
S'LilyPad Arduino USB'
p801
saa(lp802
S'lilypad328'
p803
a(dp804
S'bootloader'
p805
(dp806
S'extended_fuses'
p807
S'0x05'
p808
sS'high_fuses'
p809
S'0xDA'
p810
sS'low_fuses'
p811
S'0xFF'
p812
sS'lock_bits'
p813
S'0x0F'
p814
sS'file'
p815
S'ATmegaBOOT_168_atmega328_pro_8MHz.hex'
p816
sS'path'
p817
S'atmega'
p818
sS'unlock_bits'
p819
S'0x3F'
p820
ssS'upload'
p821
(dp822
S'protocol'
p823
S'arduino'
p824
sS'maximum_size'
p825
S'30720'
p826
sS'speed'
p827
S'57600'
p828
ssS'build'
p829
(dp830
S'core'
p831
S'arduino'
p832
sS'mcu'
p833
S'atmega328p'
p834
sS'f_cpu'
p835
S'8000000L'
p836
sS'variant'
p837
S'standard'
p838
ssS'name'
p839
S'LilyPad Arduino w/ ATmega328'
p840
saa(lp841
S'lilypad'
p842
a(dp843
S'bootloader'
p844
(dp845
S'extended_fuses'
p846
S'0x00'
p847
sS'high_fuses'
p848
S'0xdd'
p849
sS'low_fuses'
p850
S'0xe2'
p851
sS'lock_bits'
p852
S'0x0F'
p853
sS'file'
p854
S'LilyPadBOOT_168.hex'
p855
sS'path'
p856
S'lilypad'
p857
sS'unlock_bits'
p858
S'0x3F'
p859
ssS'upload'
p860
(dp861
S'protocol'
p862
S'arduino'
p863
sS'maximum_size'
p864
S'14336'
p865
sS'speed'
p866
S'19200'
p867
ssS'build'
p868
(dp869
S'core'
p870
S'arduino'
p871
sS'mcu'
p872
S'atmega168'
p873
sS'f_cpu'
p874
S'8000000L'
p875
sS'variant'
p876
S'standard'
p877
ssS'name'
p878
S'LilyPad Arduino w/ ATmega168'
p879
saa(lp880
S'pro5v328'
p881
a(dp882
S'bootloader'
p883
(dp884
S'extended_fuses'
p885
S'0x05'
p886
sS'high_fuses'
p887
S'0xDA'
p888
sS'low_fuses'
p889
S'0xFF'
p890
sS'lock_bits'
p891
S'0x0F'
p892
sS'file'
p893
S'ATmegaBOOT_168_atmega328.hex'
p894
sS'path'
p895
S'atmega'
p896
sS'unlock_bits'
p897
S'0x3F'
p898
ssS'upload'
p899
(dp900
S'protocol'
p901
S'arduino'
p902
sS'maximum_size'
p903
S'30720'
p904
sS'speed'
p905
S'57600'
p906
ssS'build'
p907
(dp908
S'core'
p909
S'arduino'
p910
sS'mcu'
p911
S'atmega328p'
p912
sS'f_cpu'
p913
S'16000000L'
p914
sS'variant'
p915
S'standard'
p916
ssS'name'
p917
S'Arduino Pro or Pro Mini (5V, 16 MHz) w/ ATmega328'
p918
saa(lp919
S'pro5v'
p920
a(dp921
S'bootloader'
p922
(dp923
S'extended_fuses'
p924
S'0x00'
p925
sS'high_fuses'
p926
S'0xdd'
p927
sS'low_fuses'
p928
S'0xff'
p929
sS'lock_bits'
p930
S'0x0F'
p931
sS'file'
p932
S'ATmegaBOOT_168_diecimila.hex'
p933
sS'path'
p934
S'atmega'
p935
sS'unlock_bits'
p936
S'0x3F'
p937
ssS'upload'
p938
(dp939
S'protocol'
p940
S'arduino'
p941
sS'maximum_size'
p942
S'14336'
p943
sS'speed'
p944
S'19200'
p945
ssS'build'
p946
(dp947
S'core'
p948
S'arduino'
p949
sS'mcu'
p950
S'atmega168'
p951
sS'f_cpu'
p952
S'16000000L'
p953
sS'variant'
p954
S'standard'
p955
ssS'name'
p956
S'Arduino Pro or Pro Mini (5V, 16 MHz) w/ ATmega168'
p957
saa(lp958
S'pro328'
p959
a(dp960
S'bootloader'
p961
(dp962
S'extended_fuses'
p963
S'0x05'
p964
sS'high_fuses'
p965
S'0xDA'
p966
sS'low_fuses'
p967
S'0xFF'
p968
sS'lock_bits'
p969
S'0x0F'
p970
sS'file'
p971
S'ATmegaBOOT_168_atmega328_pro_8MHz.hex'
p972
sS'path'
p973
S'atmega'
p974
sS'unlock_bits'
p975
S'0x3F'
p976
ssS'upload'
p977
(dp978
S'protocol'
p979
S'arduino'
p980
sS'maximum_size'
p981
S'30720'
p982
sS'speed'
p983
S'57600'
p984
ssS'build'
p985
(dp986
S'core'
p987
S'arduino'
p988
sS'mcu'
p989
S'atmega328p'
p990
sS'f_cpu'
p991
S'8000000L'
p992
sS'variant'
p993
S'standard'
p994
ssS'name'
p995
S'Arduino Pro or Pro Mini (3.3V, 8 MHz) w/ ATmega328'
p996
saa(lp997
S'pro'
p998
a(dp999
S'bootloader'
p1000
(dp1001
S'extended_fuses'
p1002
S'0x00'
p1003
sS'high_fuses'
p1004
S'0xdd'
p1005
sS'low_fuses'
p1006
S'0xc6'
p1007
sS'lock_bits'
p1008
S'0x0F'
p1009
sS'file'
p1010
S'ATmegaBOOT_168_pro_8MHz.hex'
p1011
sS'path'
p1012
S'atmega'
p1013
sS'unlock_bits'
p1014
S'0x3F'
p1015
ssS'upload'
p1016
(dp1017
S'protocol'
p1018
S'arduino'
p1019
sS'maximum_size'
p1020
S'14336'
p1021
sS'speed'
p1022
S'19200'
p1023
ssS'build'
p1024
(dp1025
S'core'
p1026
S'arduino'
p1027
sS'mcu'
p1028
S'atmega168'
p1029
sS'f_cpu'
p1030
S'8000000L'
p1031
sS'variant'
p1032
S'standard'
p1033
ssS'name'
p1034
S'Arduino Pro or Pro Mini (3.3V, 8 MHz) w/ ATmega168'
p1035
saa(lp1036
S'atmega168'
p1037
a(dp1038
S'bootloader'
p1039
(dp1040
S'extended_fuses'
p1041
S'0x00'
p1042
sS'high_fuses'
p1043
S'0xdd'
p1044
sS'low_fuses'
p1045
S'0xff'
p1046
sS'lock_bits'
p1047
S'0x0F'
p1048
sS'file'
p1049
S'ATmegaBOOT_168_ng.hex'
p1050
sS'path'
p1051
S'atmega'
p1052
sS'unlock_bits'
p1053
S'0x3F'
p1054
ssS'upload'
p1055
(dp1056
S'protocol'
p1057
S'arduino'
p1058
sS'maximum_size'
p1059
S'14336'
p1060
sS'speed'
p1061
S'19200'
p1062
ssS'build'
p1063
(dp1064
S'core'
p1065
S'arduino'
p1066
sS'mcu'
p1067
S'atmega168'
p1068
sS'f_cpu'
p1069
S'16000000L'
p1070
sS'variant'
p1071
S'standard'
p1072
ssS'name'
p1073
S'Arduino NG or older w/ ATmega168'
p1074
saa(lp1075
S'atmega8'
p1076
a(dp1077
S'bootloader'
p1078
(dp1079
S'high_fuses'
p1080
S'0xca'
p1081
sS'low_fuses'
p1082
S'0xdf'
p1083
sS'lock_bits'
p1084
S'0x0F'
p1085
sS'file'
p1086
S'ATmegaBOOT-prod-firmware-2009-11-07.hex'
p1087
sS'path'
p1088
S'atmega8'
p1089
sS'unlock_bits'
p1090
S'0x3F'
p1091
ssS'upload'
p1092
(dp1093
S'protocol'
p1094
S'arduino'
p1095
sS'maximum_size'
p1096
S'7168'
p1097
sS'speed'
p1098
S'19200'
p1099
ssS'build'
p1100
(dp1101
S'core'
p1102
S'arduino'
p1103
sS'mcu'
p1104
S'atmega8'
p1105
sS'f_cpu'
p1106
S'16000000L'
p1107
sS'variant'
p1108
S'standard'
p1109
ssS'name'
p1110
S'Arduino NG or older w/ ATmega8'
p1111
saa(lp1112
S'robotControl'
p1113
a(dp1114
S'bootloader'
p1115
(dp1116
S'extended_fuses'
p1117
S'0xcb'
p1118
sS'high_fuses'
p1119
S'0xd8'
p1120
sS'low_fuses'
p1121
S'0xff'
p1122
sS'lock_bits'
p1123
S'0x2F'
p1124
sS'file'
p1125
S'Caterina-Robot-Control.hex'
p1126
sS'path'
p1127
S'caterina-Arduino_Robot'
p1128
sS'unlock_bits'
p1129
S'0x3F'
p1130
ssS'upload'
p1131
(dp1132
S'protocol'
p1133
S'avr109'
p1134
sS'maximum_size'
p1135
S'28672'
p1136
sS'speed'
p1137
S'57600'
p1138
sS'disable_flushing'
p1139
S'true'
p1140
ssS'build'
p1141
(dp1142
S'core'
p1143
S'robot'
p1144
sS'f_cpu'
p1145
S'16000000L'
p1146
sS'vid'
p1147
S'0x2341'
p1148
sS'pid'
p1149
S'0x8038'
p1150
sS'variant'
p1151
S'robot_control'
p1152
sS'mcu'
p1153
S'atmega32u4'
p1154
ssS'name'
p1155
S'Arduino Robot Control'
p1156
saa(lp1157
S'robotMotor'
p1158
a(dp1159
S'bootloader'
p1160
(dp1161
S'extended_fuses'
p1162
S'0xcb'
p1163
sS'high_fuses'
p1164
S'0xd8'
p1165
sS'low_fuses'
p1166
S'0xff'
p1167
sS'lock_bits'
p1168
S'0x2F'
p1169
sS'file'
p1170
S'Caterina-Robot-Motor.hex'
p1171
sS'path'
p1172
S'caterina-Arduino_Robot'
p1173
sS'unlock_bits'
p1174
S'0x3F'
p1175
ssS'upload'
p1176
(dp1177
S'protocol'
p1178
S'avr109'
p1179
sS'maximum_size'
p1180
S'28672'
p1181
sS'speed'
p1182
S'57600'
p1183
sS'disable_flushing'
p1184
S'true'
p1185
ssS'build'
p1186
(dp1187
S'core'
p1188
S'robot'
p1189
sS'f_cpu'
p1190
S'16000000L'
p1191
sS'vid'
p1192
S'0x2341'
p1193
sS'pid'
p1194
S'0x8039'
p1195
sS'variant'
p1196
S'robot_motor'
p1197
sS'mcu'
p1198
S'atmega32u4'
p1199
ssS'name'
p1200
S'Arduino Robot Motor'
p1201
saatp1202
Rp1203
(dp1204
S'default'
p1205
S'uno'
p1206
sbtp1207
a(S'cc'
p1208
S'/usr/share/arduino/hardware/tools/avr/bin/avr-gcc'
p1209
tp1210
a.